target datalayout = "e-m:e-p270:32:32-p271:32:32-p272:64:64-i64:64-f80:128-n8:16:32:64-S128"
target triple = "x86_64-pc-linux-gnu"

@.str = private unnamed_addr constant [3 x i8] c"%d\00", align 1
@.str.1 = private unnamed_addr constant [3 x i8] c"%s\00", align 1
@.str.2 = private unnamed_addr constant [4 x i8] c"NO\0A\00", align 1
@.str.3 = private unnamed_addr constant [4 x i8] c"%d\0A\00", align 1
@.str.4 = private unnamed_addr constant [4 x i8] c"%s\0A\00", align 1

; Function Attrs: noinline nounwind uwtable
define dso_local i32 @main() #0 {
  %1 = alloca i32, align 4
  %2 = alloca [500 x i8], align 16
  %3 = alloca [500 x [500 x i8]], align 16
  %4 = alloca i32, align 4
  %5 = alloca i32, align 4
  %6 = alloca i32, align 4
  %7 = alloca i32, align 4
  %8 = alloca i32, align 4
  %9 = alloca [500 x i32], align 16
  %10 = alloca i32, align 4
  %11 = alloca i32, align 4
  store i32 0, i32* %1, align 4
  store i32 0, i32* %8, align 4
  %12 = bitcast [500 x i32]* %9 to i8*
  call void @llvm.memset.p0i8.i64(i8* align 16 %12, i8 0, i64 2000, i1 false)
  store i32 0, i32* %10, align 4
  store i32 0, i32* %11, align 4
  %13 = call i32 (i8*, ...) @__isoc99_scanf(i8* getelementptr inbounds ([3 x i8], [3 x i8]* @.str, i64 0, i64 0), i32* %6)
  %14 = getelementptr inbounds [500 x i8], [500 x i8]* %2, i64 0, i64 0
  %15 = call i32 (i8*, ...) @__isoc99_scanf(i8* getelementptr inbounds ([3 x i8], [3 x i8]* @.str.1, i64 0, i64 0), i8* %14)
  %16 = getelementptr inbounds [500 x i8], [500 x i8]* %2, i64 0, i64 0
  %17 = call i64 @strlen(i8* %16) #4
  %18 = trunc i64 %17 to i32
  store i32 %18, i32* %7, align 4
  store i32 0, i32* %4, align 4
  br label %19

19:                                               ; preds = %56, %0
  %20 = load i32, i32* %4, align 4
  %21 = load i32, i32* %7, align 4
  %22 = load i32, i32* %6, align 4
  %23 = sub nsw i32 %21, %22
  %24 = icmp sle i32 %20, %23
  br i1 %24, label %25, label %59

25:                                               ; preds = %19
  %26 = load i32, i32* %4, align 4
  store i32 %26, i32* %5, align 4
  br label %27

27:                                               ; preds = %46, %25
  %28 = load i32, i32* %5, align 4
  %29 = load i32, i32* %4, align 4
  %30 = load i32, i32* %6, align 4
  %31 = add nsw i32 %29, %30
  %32 = icmp slt i32 %28, %31
  br i1 %32, label %33, label %49

33:                                               ; preds = %27
  %34 = load i32, i32* %5, align 4
  %35 = sext i32 %34 to i64
  %36 = getelementptr inbounds [500 x i8], [500 x i8]* %2, i64 0, i64 %35
  %37 = load i8, i8* %36, align 1
  %38 = load i32, i32* %4, align 4
  %39 = sext i32 %38 to i64
  %40 = getelementptr inbounds [500 x [500 x i8]], [500 x [500 x i8]]* %3, i64 0, i64 %39
  %41 = load i32, i32* %8, align 4
  %42 = sext i32 %41 to i64
  %43 = getelementptr inbounds [500 x i8], [500 x i8]* %40, i64 0, i64 %42
  store i8 %37, i8* %43, align 1
  %44 = load i32, i32* %8, align 4
  %45 = add nsw i32 %44, 1
  store i32 %45, i32* %8, align 4
  br label %46

46:                                               ; preds = %33
  %47 = load i32, i32* %5, align 4
  %48 = add nsw i32 %47, 1
  store i32 %48, i32* %5, align 4
  br label %27

49:                                               ; preds = %27
  %50 = load i32, i32* %4, align 4
  %51 = sext i32 %50 to i64
  %52 = getelementptr inbounds [500 x [500 x i8]], [500 x [500 x i8]]* %3, i64 0, i64 %51
  %53 = load i32, i32* %8, align 4
  %54 = sext i32 %53 to i64
  %55 = getelementptr inbounds [500 x i8], [500 x i8]* %52, i64 0, i64 %54
  store i8 0, i8* %55, align 1
  store i32 0, i32* %8, align 4
  br label %56

56:                                               ; preds = %49
  %57 = load i32, i32* %4, align 4
  %58 = add nsw i32 %57, 1
  store i32 %58, i32* %4, align 4
  br label %19

59:                                               ; preds = %19
  store i32 0, i32* %4, align 4
  br label %60

60:                                               ; preds = %95, %59
  %61 = load i32, i32* %4, align 4
  %62 = load i32, i32* %7, align 4
  %63 = load i32, i32* %6, align 4
  %64 = sub nsw i32 %62, %63
  %65 = icmp sle i32 %61, %64
  br i1 %65, label %66, label %98

66:                                               ; preds = %60
  store i32 0, i32* %5, align 4
  br label %67

67:                                               ; preds = %91, %66
  %68 = load i32, i32* %5, align 4
  %69 = load i32, i32* %7, align 4
  %70 = load i32, i32* %6, align 4
  %71 = sub nsw i32 %69, %70
  %72 = icmp sle i32 %68, %71
  br i1 %72, label %73, label %94

73:                                               ; preds = %67
  %74 = load i32, i32* %4, align 4
  %75 = sext i32 %74 to i64
  %76 = getelementptr inbounds [500 x [500 x i8]], [500 x [500 x i8]]* %3, i64 0, i64 %75
  %77 = getelementptr inbounds [500 x i8], [500 x i8]* %76, i64 0, i64 0
  %78 = load i32, i32* %5, align 4
  %79 = sext i32 %78 to i64
  %80 = getelementptr inbounds [500 x [500 x i8]], [500 x [500 x i8]]* %3, i64 0, i64 %79
  %81 = getelementptr inbounds [500 x i8], [500 x i8]* %80, i64 0, i64 0
  %82 = call i32 @strcmp(i8* %77, i8* %81) #4
  %83 = icmp eq i32 %82, 0
  br i1 %83, label %84, label %90

84:                                               ; preds = %73
  %85 = load i32, i32* %4, align 4
  %86 = sext i32 %85 to i64
  %87 = getelementptr inbounds [500 x i32], [500 x i32]* %9, i64 0, i64 %86
  %88 = load i32, i32* %87, align 4
  %89 = add nsw i32 %88, 1
  store i32 %89, i32* %87, align 4
  br label %90

90:                                               ; preds = %84, %73
  br label %91

91:                                               ; preds = %90
  %92 = load i32, i32* %5, align 4
  %93 = add nsw i32 %92, 1
  store i32 %93, i32* %5, align 4
  br label %67

94:                                               ; preds = %67
  br label %95

95:                                               ; preds = %94
  %96 = load i32, i32* %4, align 4
  %97 = add nsw i32 %96, 1
  store i32 %97, i32* %4, align 4
  br label %60

98:                                               ; preds = %60
  store i32 0, i32* %4, align 4
  br label %99

99:                                               ; preds = %118, %98
  %100 = load i32, i32* %4, align 4
  %101 = load i32, i32* %7, align 4
  %102 = load i32, i32* %6, align 4
  %103 = sub nsw i32 %101, %102
  %104 = icmp sle i32 %100, %103
  br i1 %104, label %105, label %121

105:                                              ; preds = %99
  %106 = load i32, i32* %4, align 4
  %107 = sext i32 %106 to i64
  %108 = getelementptr inbounds [500 x i32], [500 x i32]* %9, i64 0, i64 %107
  %109 = load i32, i32* %108, align 4
  %110 = load i32, i32* %10, align 4
  %111 = icmp sgt i32 %109, %110
  br i1 %111, label %112, label %117

112:                                              ; preds = %105
  %113 = load i32, i32* %4, align 4
  %114 = sext i32 %113 to i64
  %115 = getelementptr inbounds [500 x i32], [500 x i32]* %9, i64 0, i64 %114
  %116 = load i32, i32* %115, align 4
  store i32 %116, i32* %10, align 4
  br label %117

117:                                              ; preds = %112, %105
  br label %118

118:                                              ; preds = %117
  %119 = load i32, i32* %4, align 4
  %120 = add nsw i32 %119, 1
  store i32 %120, i32* %4, align 4
  br label %99

121:                                              ; preds = %99
  %122 = load i32, i32* %10, align 4
  %123 = icmp sle i32 %122, 1
  br i1 %123, label %124, label %126

124:                                              ; preds = %121
  %125 = call i32 (i8*, ...) @printf(i8* getelementptr inbounds ([4 x i8], [4 x i8]* @.str.2, i64 0, i64 0))
  br label %178

126:                                              ; preds = %121
  %127 = load i32, i32* %10, align 4
  %128 = call i32 (i8*, ...) @printf(i8* getelementptr inbounds ([4 x i8], [4 x i8]* @.str.3, i64 0, i64 0), i32 %127)
  store i32 0, i32* %4, align 4
  br label %129

129:                                              ; preds = %174, %126
  %130 = load i32, i32* %4, align 4
  %131 = load i32, i32* %7, align 4
  %132 = load i32, i32* %6, align 4
  %133 = sub nsw i32 %131, %132
  %134 = icmp sle i32 %130, %133
  br i1 %134, label %135, label %177

135:                                              ; preds = %129
  %136 = load i32, i32* %4, align 4
  %137 = sext i32 %136 to i64
  %138 = getelementptr inbounds [500 x i32], [500 x i32]* %9, i64 0, i64 %137
  %139 = load i32, i32* %138, align 4
  %140 = load i32, i32* %10, align 4
  %141 = icmp eq i32 %139, %140
  br i1 %141, label %142, label %173

142:                                              ; preds = %135
  store i32 0, i32* %5, align 4
  br label %143

143:                                              ; preds = %160, %142
  %144 = load i32, i32* %5, align 4
  %145 = load i32, i32* %4, align 4
  %146 = icmp slt i32 %144, %145
  br i1 %146, label %147, label %163

147:                                              ; preds = %143
  %148 = load i32, i32* %4, align 4
  %149 = sext i32 %148 to i64
  %150 = getelementptr inbounds [500 x [500 x i8]], [500 x [500 x i8]]* %3, i64 0, i64 %149
  %151 = getelementptr inbounds [500 x i8], [500 x i8]* %150, i64 0, i64 0
  %152 = load i32, i32* %5, align 4
  %153 = sext i32 %152 to i64
  %154 = getelementptr inbounds [500 x [500 x i8]], [500 x [500 x i8]]* %3, i64 0, i64 %153
  %155 = getelementptr inbounds [500 x i8], [500 x i8]* %154, i64 0, i64 0
  %156 = call i32 @strcmp(i8* %151, i8* %155) #4
  %157 = icmp eq i32 %156, 0
  br i1 %157, label %158, label %159

158:                                              ; preds = %147
  store i32 1, i32* %11, align 4
  br label %163

159:                                              ; preds = %147
  br label %160

160:                                              ; preds = %159
  %161 = load i32, i32* %5, align 4
  %162 = add nsw i32 %161, 1
  store i32 %162, i32* %5, align 4
  br label %143

163:                                              ; preds = %158, %143
  %164 = load i32, i32* %11, align 4
  %165 = icmp eq i32 %164, 0
  br i1 %165, label %166, label %172

166:                                              ; preds = %163
  %167 = load i32, i32* %4, align 4
  %168 = sext i32 %167 to i64
  %169 = getelementptr inbounds [500 x [500 x i8]], [500 x [500 x i8]]* %3, i64 0, i64 %168
  %170 = getelementptr inbounds [500 x i8], [500 x i8]* %169, i64 0, i64 0
  %171 = call i32 (i8*, ...) @printf(i8* getelementptr inbounds ([4 x i8], [4 x i8]* @.str.4, i64 0, i64 0), i8* %170)
  br label %172

172:                                              ; preds = %166, %163
  br label %173

173:                                              ; preds = %172, %135
  store i32 0, i32* %11, align 4
  br label %174

174:                                              ; preds = %173
  %175 = load i32, i32* %4, align 4
  %176 = add nsw i32 %175, 1
  store i32 %176, i32* %4, align 4
  br label %129

177:                                              ; preds = %129
  br label %178

178:                                              ; preds = %177, %124
  ret i32 0
}